target datalayout = "e-m:e-p270:32:32-p271:32:32-p272:64:64-i64:64-i128:128-f80:128-n8:16:32:64-S128"
target triple = "x86_64-pc-linux-gnu"

%"struct.icu_77::UCharNames" = type { i32, i32, i32, i32 }

; Function Attrs: mustprogress nounwind uwtable
define internal noundef ptr @_ZN6icu_77L18expandGroupLengthsEPKhPtS2_(ptr noundef %0, ptr noundef %1, ptr noundef %2) #6 {
  %4 = alloca ptr, align 8
  %5 = alloca ptr, align 8
  %6 = alloca ptr, align 8
  %7 = alloca i16, align 2
  %8 = alloca i16, align 2
  %9 = alloca i16, align 2
  %10 = alloca i8, align 1
  store ptr %0, ptr %4, align 8, !tbaa !9
  store ptr %1, ptr %5, align 8, !tbaa !32
  store ptr %2, ptr %6, align 8, !tbaa !32
  call void @llvm.lifetime.start.p0(i64 2, ptr %7) #12
  store i16 0, ptr %7, align 2, !tbaa !26
  call void @llvm.lifetime.start.p0(i64 2, ptr %8) #12
  store i16 0, ptr %8, align 2, !tbaa !26
  call void @llvm.lifetime.start.p0(i64 2, ptr %9) #12
  store i16 0, ptr %9, align 2, !tbaa !26
  call void @llvm.lifetime.start.p0(i64 1, ptr %10) #12
  br label %11

11:                                               ; preds = %99, %3
  %12 = load i16, ptr %7, align 2, !tbaa !26
  %13 = zext i16 %12 to i64
  %14 = icmp slt i64 %13, 32
  br i1 %14, label %15, label %100

15:                                               ; preds = %11
  %16 = load ptr, ptr %4, align 8, !tbaa !9
  %17 = getelementptr inbounds nuw i8, ptr %16, i32 1
  store ptr %17, ptr %4, align 8, !tbaa !9
  %18 = load i8, ptr %16, align 1, !tbaa !27
  store i8 %18, ptr %10, align 1, !tbaa !27
  %19 = load i16, ptr %9, align 2, !tbaa !26
  %20 = zext i16 %19 to i32
  %21 = icmp sge i32 %20, 12
  br i1 %21, label %22, label %37

22:                                               ; preds = %15
  %23 = load i16, ptr %9, align 2, !tbaa !26
  %24 = zext i16 %23 to i32
  %25 = and i32 %24, 3
  %26 = shl i32 %25, 4
  %27 = load i8, ptr %10, align 1, !tbaa !27
  %28 = zext i8 %27 to i32
  %29 = ashr i32 %28, 4
  %30 = or i32 %26, %29
  %31 = add nsw i32 %30, 12
  %32 = trunc i32 %31 to i16
  store i16 %32, ptr %9, align 2, !tbaa !26
  %33 = load i8, ptr %10, align 1, !tbaa !27
  %34 = zext i8 %33 to i32
  %35 = and i32 %34, 15
  %36 = trunc i32 %35 to i8
  store i8 %36, ptr %10, align 1, !tbaa !27
  br label %57

37:                                               ; preds = %15
  %38 = load i8, ptr %10, align 1, !tbaa !27
  %39 = zext i8 %38 to i32
  %40 = icmp sge i32 %39, 192
  br i1 %40, label %41, label %47

41:                                               ; preds = %37
  %42 = load i8, ptr %10, align 1, !tbaa !27
  %43 = zext i8 %42 to i32
  %44 = and i32 %43, 63
  %45 = add nsw i32 %44, 12
  %46 = trunc i32 %45 to i16
  store i16 %46, ptr %9, align 2, !tbaa !26
  br label %56

47:                                               ; preds = %37
  %48 = load i8, ptr %10, align 1, !tbaa !27
  %49 = zext i8 %48 to i32
  %50 = ashr i32 %49, 4
  %51 = trunc i32 %50 to i16
  store i16 %51, ptr %9, align 2, !tbaa !26
  %52 = load i8, ptr %10, align 1, !tbaa !27
  %53 = zext i8 %52 to i32
  %54 = and i32 %53, 15
  %55 = trunc i32 %54 to i8
  store i8 %55, ptr %10, align 1, !tbaa !27
  br label %56

56:                                               ; preds = %47, %41
  br label %57

57:                                               ; preds = %56, %22
  %58 = load i16, ptr %8, align 2, !tbaa !26
  %59 = load ptr, ptr %5, align 8, !tbaa !32
  %60 = getelementptr inbounds nuw i16, ptr %59, i32 1
  store ptr %60, ptr %5, align 8, !tbaa !32
  store i16 %58, ptr %59, align 2, !tbaa !26
  %61 = load i16, ptr %9, align 2, !tbaa !26
  %62 = load ptr, ptr %6, align 8, !tbaa !32
  %63 = getelementptr inbounds nuw i16, ptr %62, i32 1
  store ptr %63, ptr %6, align 8, !tbaa !32
  store i16 %61, ptr %62, align 2, !tbaa !26
  %64 = load i16, ptr %9, align 2, !tbaa !26
  %65 = zext i16 %64 to i32
  %66 = load i16, ptr %8, align 2, !tbaa !26
  %67 = zext i16 %66 to i32
  %68 = add nsw i32 %67, %65
  %69 = trunc i32 %68 to i16
  store i16 %69, ptr %8, align 2, !tbaa !26
  %70 = load i16, ptr %7, align 2, !tbaa !26
  %71 = add i16 %70, 1
  store i16 %71, ptr %7, align 2, !tbaa !26
  %72 = load i8, ptr %10, align 1, !tbaa !27
  %73 = zext i8 %72 to i32
  %74 = and i32 %73, 240
  %75 = icmp eq i32 %74, 0
  br i1 %75, label %76, label %98

76:                                               ; preds = %57
  %77 = load i8, ptr %10, align 1, !tbaa !27
  %78 = zext i8 %77 to i16
  store i16 %78, ptr %9, align 2, !tbaa !26
  %79 = load i16, ptr %9, align 2, !tbaa !26
  %80 = zext i16 %79 to i32
  %81 = icmp slt i32 %80, 12
  br i1 %81, label %82, label %97

82:                                               ; preds = %76
  %83 = load i16, ptr %8, align 2, !tbaa !26
  %84 = load ptr, ptr %5, align 8, !tbaa !32
  %85 = getelementptr inbounds nuw i16, ptr %84, i32 1
  store ptr %85, ptr %5, align 8, !tbaa !32
  store i16 %83, ptr %84, align 2, !tbaa !26
  %86 = load i16, ptr %9, align 2, !tbaa !26
  %87 = load ptr, ptr %6, align 8, !tbaa !32
  %88 = getelementptr inbounds nuw i16, ptr %87, i32 1
  store ptr %88, ptr %6, align 8, !tbaa !32
  store i16 %86, ptr %87, align 2, !tbaa !26
  %89 = load i16, ptr %9, align 2, !tbaa !26
  %90 = zext i16 %89 to i32
  %91 = load i16, ptr %8, align 2, !tbaa !26
  %92 = zext i16 %91 to i32
  %93 = add nsw i32 %92, %90
  %94 = trunc i32 %93 to i16
  store i16 %94, ptr %8, align 2, !tbaa !26
  %95 = load i16, ptr %7, align 2, !tbaa !26
  %96 = add i16 %95, 1
  store i16 %96, ptr %7, align 2, !tbaa !26
  br label %97

97:                                               ; preds = %82, %76
  br label %99

98:                                               ; preds = %57
  store i16 0, ptr %9, align 2, !tbaa !26
  br label %99

99:                                               ; preds = %98, %97
  br label %11, !llvm.loop !100

100:                                              ; preds = %11
  %101 = load ptr, ptr %4, align 8, !tbaa !9
  call void @llvm.lifetime.end.p0(i64 1, ptr %10) #12
  call void @llvm.lifetime.end.p0(i64 2, ptr %9) #12
  call void @llvm.lifetime.end.p0(i64 2, ptr %8) #12
  call void @llvm.lifetime.end.p0(i64 2, ptr %7) #12
  ret ptr %101
}

; Function Attrs: mustprogress uwtable
define internal noundef zeroext i16 @_ZN6icu_77L15expandGroupNameEPNS_10UCharNamesEPKtt15UCharNameChoicePct(ptr noundef %0, ptr noundef %1, i16 noundef zeroext %2, i32 noundef %3, ptr noundef %4, i16 noundef zeroext %5) #0 {
  %7 = alloca ptr, align 8
  %8 = alloca ptr, align 8
  %9 = alloca i16, align 2
  %10 = alloca i32, align 4
  %11 = alloca ptr, align 8
  %12 = alloca i16, align 2
  %13 = alloca [34 x i16], align 16
  %14 = alloca [34 x i16], align 16
  %15 = alloca ptr, align 8
  store ptr %0, ptr %7, align 8, !tbaa !12
  store ptr %1, ptr %8, align 8, !tbaa !32
  store i16 %2, ptr %9, align 2, !tbaa !26
  store i32 %3, ptr %10, align 4, !tbaa !7
  store ptr %4, ptr %11, align 8, !tbaa !9
  store i16 %5, ptr %12, align 2, !tbaa !26
  call void @llvm.lifetime.start.p0(i64 68, ptr %13) #12
  call void @llvm.lifetime.start.p0(i64 68, ptr %14) #12
  call void @llvm.lifetime.start.p0(i64 8, ptr %15) #12
  %16 = load ptr, ptr %7, align 8, !tbaa !12
  %17 = load ptr, ptr %7, align 8, !tbaa !12
  %18 = getelementptr inbounds nuw %"struct.icu_77::UCharNames", ptr %17, i32 0, i32 2
  %19 = load i32, ptr %18, align 4, !tbaa !132
  %20 = zext i32 %19 to i64
  %21 = getelementptr inbounds nuw i8, ptr %16, i64 %20
  %22 = load ptr, ptr %8, align 8, !tbaa !32
  %23 = getelementptr inbounds nuw i16, ptr %22, i64 1
  %24 = load i16, ptr %23, align 2, !tbaa !26
  %25 = zext i16 %24 to i32
  %26 = shl i32 %25, 16
  %27 = load ptr, ptr %8, align 8, !tbaa !32
  %28 = getelementptr inbounds nuw i16, ptr %27, i64 2
  %29 = load i16, ptr %28, align 2, !tbaa !26
  %30 = zext i16 %29 to i32
  %31 = or i32 %26, %30
  %32 = sext i32 %31 to i64
  %33 = getelementptr inbounds i8, ptr %21, i64 %32
  store ptr %33, ptr %15, align 8, !tbaa !9
  %34 = load ptr, ptr %15, align 8, !tbaa !9
  %35 = getelementptr inbounds [34 x i16], ptr %13, i64 0, i64 0
  %36 = getelementptr inbounds [34 x i16], ptr %14, i64 0, i64 0
  %37 = call noundef ptr @_ZN6icu_77L18expandGroupLengthsEPKhPtS2_(ptr noundef %34, ptr noundef %35, ptr noundef %36)
  store ptr %37, ptr %15, align 8, !tbaa !9
  %38 = load ptr, ptr %7, align 8, !tbaa !12
  %39 = load ptr, ptr %15, align 8, !tbaa !9
  %40 = load i16, ptr %9, align 2, !tbaa !26
  %41 = zext i16 %40 to i64
  %42 = getelementptr inbounds nuw [34 x i16], ptr %13, i64 0, i64 %41
  %43 = load i16, ptr %42, align 2, !tbaa !26
  %44 = zext i16 %43 to i32
  %45 = sext i32 %44 to i64
  %46 = getelementptr inbounds i8, ptr %39, i64 %45
  %47 = load i16, ptr %9, align 2, !tbaa !26
  %48 = zext i16 %47 to i64
  %49 = getelementptr inbounds nuw [34 x i16], ptr %14, i64 0, i64 %48
  %50 = load i16, ptr %49, align 2, !tbaa !26
  %51 = load i32, ptr %10, align 4, !tbaa !7
  %52 = load ptr, ptr %11, align 8, !tbaa !9
  %53 = load i16, ptr %12, align 2, !tbaa !26
  %54 = call noundef zeroext i16 @_ZN6icu_77L10expandNameEPNS_10UCharNamesEPKht15UCharNameChoicePct(ptr noundef %38, ptr noundef %46, i16 noundef zeroext %50, i32 noundef %51, ptr noundef %52, i16 noundef zeroext %53)
  call void @llvm.lifetime.end.p0(i64 8, ptr %15) #12
  call void @llvm.lifetime.end.p0(i64 68, ptr %14) #12
  call void @llvm.lifetime.end.p0(i64 68, ptr %13) #12
  ret i16 %54
}

; Function Attrs: mustprogress nounwind uwtable
define internal noundef ptr @_ZN6icu_77L8getGroupEPNS_10UCharNamesEj(ptr noundef %0, i32 noundef %1) #6 {
  %3 = alloca ptr, align 8
  %4 = alloca i32, align 4
  %5 = alloca ptr, align 8
  %6 = alloca i16, align 2
  %7 = alloca i16, align 2
  %8 = alloca i16, align 2
  %9 = alloca i16, align 2
  store ptr %0, ptr %3, align 8, !tbaa !12
  store i32 %1, ptr %4, align 4, !tbaa !3
  call void @llvm.lifetime.start.p0(i64 8, ptr %5) #12
  %10 = load ptr, ptr %3, align 8, !tbaa !12
  %11 = load ptr, ptr %3, align 8, !tbaa !12
  %12 = getelementptr inbounds nuw %"struct.icu_77::UCharNames", ptr %11, i32 0, i32 1
  %13 = load i32, ptr %12, align 4, !tbaa !54
  %14 = zext i32 %13 to i64
  %15 = getelementptr inbounds nuw i8, ptr %10, i64 %14
  store ptr %15, ptr %5, align 8, !tbaa !32
  call void @llvm.lifetime.start.p0(i64 2, ptr %6) #12
  %16 = load i32, ptr %4, align 4, !tbaa !3
  %17 = lshr i32 %16, 5
  %18 = trunc i32 %17 to i16
  store i16 %18, ptr %6, align 2, !tbaa !26
  call void @llvm.lifetime.start.p0(i64 2, ptr %7) #12
  store i16 0, ptr %7, align 2, !tbaa !26
  call void @llvm.lifetime.start.p0(i64 2, ptr %8) #12
  %19 = load ptr, ptr %5, align 8, !tbaa !32
  %20 = getelementptr inbounds nuw i16, ptr %19, i32 1
  store ptr %20, ptr %5, align 8, !tbaa !32
  %21 = load i16, ptr %19, align 2, !tbaa !26
  store i16 %21, ptr %8, align 2, !tbaa !26
  call void @llvm.lifetime.start.p0(i64 2, ptr %9) #12
  br label %22

22:                                               ; preds = %53, %2
  %23 = load i16, ptr %7, align 2, !tbaa !26
  %24 = zext i16 %23 to i32
  %25 = load i16, ptr %8, align 2, !tbaa !26
  %26 = zext i16 %25 to i32
  %27 = sub nsw i32 %26, 1
  %28 = icmp slt i32 %24, %27
  br i1 %28, label %29, label %54

29:                                               ; preds = %22
  %30 = load i16, ptr %7, align 2, !tbaa !26
  %31 = zext i16 %30 to i32
  %32 = load i16, ptr %8, align 2, !tbaa !26
  %33 = zext i16 %32 to i32
  %34 = add nsw i32 %31, %33
  %35 = sdiv i32 %34, 2
  %36 = trunc i32 %35 to i16
  store i16 %36, ptr %9, align 2, !tbaa !26
  %37 = load i16, ptr %6, align 2, !tbaa !26
  %38 = zext i16 %37 to i32
  %39 = load ptr, ptr %5, align 8, !tbaa !32
  %40 = load i16, ptr %9, align 2, !tbaa !26
  %41 = zext i16 %40 to i32
  %42 = mul nsw i32 %41, 3
  %43 = add nsw i32 %42, 0
  %44 = sext i32 %43 to i64
  %45 = getelementptr inbounds i16, ptr %39, i64 %44
  %46 = load i16, ptr %45, align 2, !tbaa !26
  %47 = zext i16 %46 to i32
  %48 = icmp slt i32 %38, %47
  br i1 %48, label %49, label %51

49:                                               ; preds = %29
  %50 = load i16, ptr %9, align 2, !tbaa !26
  store i16 %50, ptr %8, align 2, !tbaa !26
  br label %53

51:                                               ; preds = %29
  %52 = load i16, ptr %9, align 2, !tbaa !26
  store i16 %52, ptr %7, align 2, !tbaa !26
  br label %53

53:                                               ; preds = %51, %49
  br label %22, !llvm.loop !131

54:                                               ; preds = %22
  %55 = load ptr, ptr %5, align 8, !tbaa !32
  %56 = load i16, ptr %7, align 2, !tbaa !26
  %57 = zext i16 %56 to i32
  %58 = mul nsw i32 %57, 3
  %59 = sext i32 %58 to i64
  %60 = getelementptr inbounds i16, ptr %55, i64 %59
  call void @llvm.lifetime.end.p0(i64 2, ptr %9) #12
  call void @llvm.lifetime.end.p0(i64 2, ptr %8) #12
  call void @llvm.lifetime.end.p0(i64 2, ptr %7) #12
  call void @llvm.lifetime.end.p0(i64 2, ptr %6) #12
  call void @llvm.lifetime.end.p0(i64 8, ptr %5) #12
  ret ptr %60
}

; Function Attrs: mustprogress uwtable
define internal noundef zeroext i16 @_ZN6icu_77L7getNameEPNS_10UCharNamesEj15UCharNameChoicePct(ptr noundef %0, i32 noundef %1, i32 noundef %2, ptr noundef %3, i16 noundef zeroext %4) #0 {
  %6 = alloca i16, align 2
  %7 = alloca ptr, align 8
  %8 = alloca i32, align 4
  %9 = alloca i32, align 4
  %10 = alloca ptr, align 8
  %11 = alloca i16, align 2
  %12 = alloca ptr, align 8
  %13 = alloca i32, align 4
  store ptr %0, ptr %7, align 8, !tbaa !12
  store i32 %1, ptr %8, align 4, !tbaa !3
  store i32 %2, ptr %9, align 4, !tbaa !7
  store ptr %3, ptr %10, align 8, !tbaa !9
  store i16 %4, ptr %11, align 2, !tbaa !26
  call void @llvm.lifetime.start.p0(i64 8, ptr %12) #12
  %14 = load ptr, ptr %7, align 8, !tbaa !12
  %15 = load i32, ptr %8, align 4, !tbaa !3
  %16 = call noundef ptr @_ZN6icu_77L8getGroupEPNS_10UCharNamesEj(ptr noundef %14, i32 noundef %15)
  store ptr %16, ptr %12, align 8, !tbaa !32
  %17 = load i32, ptr %8, align 4, !tbaa !3
  %18 = lshr i32 %17, 5
  %19 = trunc i32 %18 to i16
  %20 = zext i16 %19 to i32
  %21 = load ptr, ptr %12, align 8, !tbaa !32
  %22 = getelementptr inbounds nuw i16, ptr %21, i64 0
  %23 = load i16, ptr %22, align 2, !tbaa !26
  %24 = zext i16 %23 to i32
  %25 = icmp eq i32 %20, %24
  br i1 %25, label %26, label %37

26:                                               ; preds = %5
  %27 = load ptr, ptr %7, align 8, !tbaa !12
  %28 = load ptr, ptr %12, align 8, !tbaa !32
  %29 = load i32, ptr %8, align 4, !tbaa !3
  %30 = zext i32 %29 to i64
  %31 = and i64 %30, 31
  %32 = trunc i64 %31 to i16
  %33 = load i32, ptr %9, align 4, !tbaa !7
  %34 = load ptr, ptr %10, align 8, !tbaa !9
  %35 = load i16, ptr %11, align 2, !tbaa !26
  %36 = call noundef zeroext i16 @_ZN6icu_77L15expandGroupNameEPNS_10UCharNamesEPKtt15UCharNameChoicePct(ptr noundef %27, ptr noundef %28, i16 noundef zeroext %32, i32 noundef %33, ptr noundef %34, i16 noundef zeroext %35)
  store i16 %36, ptr %6, align 2
  store i32 1, ptr %13, align 4
  br label %44

37:                                               ; preds = %5
  %38 = load i16, ptr %11, align 2, !tbaa !26
  %39 = zext i16 %38 to i32
  %40 = icmp sgt i32 %39, 0
  br i1 %40, label %41, label %43

41:                                               ; preds = %37
  %42 = load ptr, ptr %10, align 8, !tbaa !9
  store i8 0, ptr %42, align 1, !tbaa !27
  br label %43

43:                                               ; preds = %41, %37
  store i16 0, ptr %6, align 2
  store i32 1, ptr %13, align 4
  br label %44

44:                                               ; preds = %43, %26
  call void @llvm.lifetime.end.p0(i64 8, ptr %12) #12
  %45 = load i16, ptr %6, align 2
  ret i16 %45
}