; Function Attrs: mustprogress nofree norecurse nosync nounwind memory(readwrite, inaccessiblemem: none) uwtable
define internal fastcc noundef zeroext i16 @_ZN6icu_77L7getNameEPNS_10UCharNamesEj15UCharNameChoicePct(ptr noundef readonly captures(none) %0, i32 noundef range(i32 0, 1114112) %1, i32 noundef range(i32 -2147483648, 4) %2, ptr noundef writeonly captures(none) %3, i16 noundef zeroext %4) unnamed_addr #3 {
  %6 = alloca [34 x i16], align 16
  %7 = alloca [34 x i16], align 16
  %8 = getelementptr inbounds nuw i8, ptr %0, i64 4
  %9 = load i32, ptr %8, align 4, !tbaa !40
  %10 = zext i32 %9 to i64
  %11 = getelementptr inbounds nuw i8, ptr %0, i64 %10
  %12 = getelementptr inbounds nuw i8, ptr %11, i64 2
  %13 = load i16, ptr %11, align 2, !tbaa !32
  %14 = icmp ugt i16 %13, 1
  br i1 %14, label %.lr.ph.i, label %._ZN6icu_77L8getGroupEPNS_10UCharNamesEj.exit_crit_edge

._ZN6icu_77L8getGroupEPNS_10UCharNamesEj.exit_crit_edge: ; preds = %5
  %.pre = lshr i32 %1, 5
  br label %_ZN6icu_77L8getGroupEPNS_10UCharNamesEj.exit

.lr.ph.i:                                         ; preds = %5
  %15 = zext i16 %13 to i32
  %16 = lshr i32 %1, 5
  br label %17

17:                                               ; preds = %17, %.lr.ph.i
  %18 = phi i32 [ %15, %.lr.ph.i ], [ %30, %17 ]
  %19 = phi i32 [ 0, %.lr.ph.i ], [ %29, %17 ]
  %.019.i = phi i16 [ %13, %.lr.ph.i ], [ %..0.i, %17 ]
  %.01418.i = phi i16 [ 0, %.lr.ph.i ], [ %.014..i, %17 ]
  %20 = add nuw nsw i32 %19, %18
  %21 = lshr i32 %20, 1
  %22 = trunc nuw i32 %21 to i16
  %23 = mul nuw nsw i32 %21, 3
  %24 = zext nneg i32 %23 to i64
  %25 = getelementptr inbounds nuw i16, ptr %12, i64 %24
  %26 = load i16, ptr %25, align 2, !tbaa !32
  %27 = zext i16 %26 to i32
  %28 = icmp samesign ult i32 %16, %27
  %.014..i = select i1 %28, i16 %.01418.i, i16 %22
  %..0.i = select i1 %28, i16 %22, i16 %.019.i
  %29 = zext i16 %.014..i to i32
  %30 = zext i16 %..0.i to i32
  %31 = add nsw i32 %30, -1
  %32 = icmp sgt i32 %31, %29
  br i1 %32, label %17, label %._crit_edge.loopexit.i, !llvm.loop !41

._crit_edge.loopexit.i:                           ; preds = %17
  %33 = mul nuw nsw i32 %29, 3
  %34 = zext nneg i32 %33 to i64
  br label %_ZN6icu_77L8getGroupEPNS_10UCharNamesEj.exit

_ZN6icu_77L8getGroupEPNS_10UCharNamesEj.exit:     ; preds = %._ZN6icu_77L8getGroupEPNS_10UCharNamesEj.exit_crit_edge, %._crit_edge.loopexit.i
  %.pre-phi = phi i32 [ %.pre, %._ZN6icu_77L8getGroupEPNS_10UCharNamesEj.exit_crit_edge ], [ %16, %._crit_edge.loopexit.i ]
  %.lcssa.i = phi i64 [ 0, %._ZN6icu_77L8getGroupEPNS_10UCharNamesEj.exit_crit_edge ], [ %34, %._crit_edge.loopexit.i ]
  %35 = getelementptr inbounds nuw i16, ptr %12, i64 %.lcssa.i
  %36 = load i16, ptr %35, align 2, !tbaa !32
  %37 = zext i16 %36 to i32
  %38 = icmp eq i32 %.pre-phi, %37
  br i1 %38, label %39, label %98

39:                                               ; preds = %_ZN6icu_77L8getGroupEPNS_10UCharNamesEj.exit
  %40 = and i32 %1, 31
  %41 = getelementptr i8, ptr %35, i64 2
  %.val = load i16, ptr %41, align 2, !tbaa !32
  %42 = getelementptr i8, ptr %35, i64 4
  %.val12 = load i16, ptr %42, align 2, !tbaa !32
  call void @llvm.lifetime.start.p0(i64 68, ptr nonnull %6) #11
  call void @llvm.lifetime.start.p0(i64 68, ptr nonnull %7) #11
  %43 = getelementptr inbounds nuw i8, ptr %0, i64 8
  %44 = load i32, ptr %43, align 4, !tbaa !42
  %45 = zext i32 %44 to i64
  %46 = getelementptr inbounds nuw i8, ptr %0, i64 %45
  %47 = zext i16 %.val to i32
  %48 = shl nuw i32 %47, 16
  %49 = zext i16 %.val12 to i32
  %50 = or disjoint i32 %48, %49
  %51 = sext i32 %50 to i64
  %52 = getelementptr inbounds i8, ptr %46, i64 %51
  br label %53

53:                                               ; preds = %88, %39
  %.02749.i.i = phi i16 [ 0, %39 ], [ %.2.i.i, %88 ]
  %.02848.i.i = phi i16 [ 0, %39 ], [ %.129.i.i, %88 ]
  %.03047.i.i = phi i16 [ 0, %39 ], [ %.131.i.i, %88 ]
  %.03246.i.i = phi ptr [ %7, %39 ], [ %.133.i.i, %88 ]
  %.03445.i.i = phi ptr [ %6, %39 ], [ %.135.i.i, %88 ]
  %.03644.i.i = phi ptr [ %52, %39 ], [ %54, %88 ]
  %54 = getelementptr inbounds nuw i8, ptr %.03644.i.i, i64 1
  %55 = load i8, ptr %.03644.i.i, align 1, !tbaa !26
  %56 = icmp samesign ugt i16 %.02749.i.i, 11
  br i1 %56, label %57, label %64

57:                                               ; preds = %53
  %58 = shl nuw nsw i16 %.02749.i.i, 4
  %59 = and i16 %58, 48
  %60 = lshr i8 %55, 4
  %61 = zext nneg i8 %60 to i16
  %62 = or disjoint i16 %59, 12
  %63 = add nuw nsw i16 %62, %61
  br label %76

64:                                               ; preds = %53
  %65 = icmp ugt i8 %55, -65
  br i1 %65, label %69, label %66

66:                                               ; preds = %64
  %67 = lshr i8 %55, 4
  %68 = zext nneg i8 %67 to i16
  br label %76

69:                                               ; preds = %64
  %70 = and i8 %55, 63
  %narrow.i.i = add nuw nsw i8 %70, 12
  %71 = zext nneg i8 %narrow.i.i to i16
  %72 = getelementptr inbounds nuw i8, ptr %.03445.i.i, i64 2
  store i16 %.02848.i.i, ptr %.03445.i.i, align 2, !tbaa !32
  %73 = getelementptr inbounds nuw i8, ptr %.03246.i.i, i64 2
  store i16 %71, ptr %.03246.i.i, align 2, !tbaa !32
  %74 = add i16 %.02848.i.i, %71
  %75 = add nuw nsw i16 %.03047.i.i, 1
  br label %88

76:                                               ; preds = %66, %57
  %.1.ph.i.i = phi i16 [ %68, %66 ], [ %63, %57 ]
  %.0.ph.i.i = and i8 %55, 15
  %77 = getelementptr inbounds nuw i8, ptr %.03445.i.i, i64 2
  store i16 %.02848.i.i, ptr %.03445.i.i, align 2, !tbaa !32
  %78 = getelementptr inbounds nuw i8, ptr %.03246.i.i, i64 2
  store i16 %.1.ph.i.i, ptr %.03246.i.i, align 2, !tbaa !32
  %79 = add i16 %.1.ph.i.i, %.02848.i.i
  %80 = add nuw nsw i16 %.03047.i.i, 1
  %81 = zext nneg i8 %.0.ph.i.i to i16
  %82 = icmp samesign ult i8 %.0.ph.i.i, 12
  br i1 %82, label %83, label %88

83:                                               ; preds = %76
  %84 = getelementptr inbounds nuw i8, ptr %.03445.i.i, i64 4
  store i16 %79, ptr %77, align 2, !tbaa !32
  %85 = getelementptr inbounds nuw i8, ptr %.03246.i.i, i64 4
  store i16 %81, ptr %78, align 2, !tbaa !32
  %86 = add i16 %79, %81
  %87 = add nuw nsw i16 %.03047.i.i, 2
  br label %88

88:                                               ; preds = %83, %76, %69
  %.135.i.i = phi ptr [ %84, %83 ], [ %77, %76 ], [ %72, %69 ]
  %.133.i.i = phi ptr [ %85, %83 ], [ %78, %76 ], [ %73, %69 ]
  %.131.i.i = phi i16 [ %87, %83 ], [ %80, %76 ], [ %75, %69 ]
  %.129.i.i = phi i16 [ %86, %83 ], [ %79, %76 ], [ %74, %69 ]
  %.2.i.i = phi i16 [ %81, %83 ], [ %81, %76 ], [ 0, %69 ]
  %89 = icmp ult i16 %.131.i.i, 32
  br i1 %89, label %53, label %_ZN6icu_77L15expandGroupNameEPNS_10UCharNamesEPKtt15UCharNameChoicePct.exit, !llvm.loop !43

_ZN6icu_77L15expandGroupNameEPNS_10UCharNamesEPKtt15UCharNameChoicePct.exit: ; preds = %88
  %90 = zext nneg i32 %40 to i64
  %91 = getelementptr inbounds nuw [34 x i16], ptr %6, i64 0, i64 %90
  %92 = load i16, ptr %91, align 2, !tbaa !32
  %93 = zext i16 %92 to i64
  %94 = getelementptr inbounds nuw i8, ptr %54, i64 %93
  %95 = getelementptr inbounds nuw [34 x i16], ptr %7, i64 0, i64 %90
  %96 = load i16, ptr %95, align 2, !tbaa !32
  %97 = tail call fastcc noundef zeroext i16 @_ZN6icu_77L10expandNameEPNS_10UCharNamesEPKht15UCharNameChoicePct(ptr noundef readonly %0, ptr noundef nonnull %94, i16 noundef zeroext %96, i32 noundef range(i32 -2147483648, 4) %2, ptr noundef %3, i16 noundef zeroext %4)
  call void @llvm.lifetime.end.p0(i64 68, ptr nonnull %7) #11
  call void @llvm.lifetime.end.p0(i64 68, ptr nonnull %6) #11
  br label %100

98:                                               ; preds = %_ZN6icu_77L8getGroupEPNS_10UCharNamesEj.exit
  %.not = icmp eq i16 %4, 0
  br i1 %.not, label %100, label %99

99:                                               ; preds = %98
  store i8 0, ptr %3, align 1, !tbaa !26
  br label %100

100:                                              ; preds = %98, %99, %_ZN6icu_77L15expandGroupNameEPNS_10UCharNamesEPKtt15UCharNameChoicePct.exit
  %.0 = phi i16 [ %97, %_ZN6icu_77L15expandGroupNameEPNS_10UCharNamesEPKtt15UCharNameChoicePct.exit ], [ 0, %99 ], [ 0, %98 ]
  ret i16 %.0
}